; Function Attrs: mustprogress uwtable
define internal fastcc noundef i32 @_ZL20asn1_get_nonzero_mpiPPhPKhP11mbedtls_mpi(ptr noundef nonnull %0, ptr noundef %1, ptr noundef nonnull %2) unnamed_addr #0 {
  %4 = tail call i32 @mbedtls_asn1_get_mpi(ptr noundef nonnull %0, ptr noundef %1, ptr noundef nonnull %2)
  %.not = icmp eq i32 %4, 0
  br i1 %.not, label %5, label %8

5:                                                ; preds = %3
  %6 = tail call i32 @mbedtls_mpi_cmp_int(ptr noundef nonnull %2, i64 noundef 0)
  %7 = icmp eq i32 %6, 0
  %. = select i1 %7, i32 -15616, i32 0
  br label %8

8:                                                ; preds = %5, %3
  %.0 = phi i32 [ %4, %3 ], [ %., %5 ]
  ret i32 %.0
}